target datalayout = "e-m:e-p270:32:32-p271:32:32-p272:64:64-i64:64-i128:128-f80:128-n8:16:32:64-S128"
target triple = "x86_64-pc-linux-gnu"

%struct.mi_heap_s = type { ptr, ptr, i64, i32, i64, [2 x i64], %struct.mi_random_cxt_s, i64, i64, i64, ptr, i8, i8, [129 x ptr], [75 x %struct.mi_page_queue_s] }
%struct.mi_random_cxt_s = type { [16 x i32], [16 x i32], i32, i8 }
%struct.mi_page_queue_s = type { ptr, ptr, i64 }
%struct.mi_segment_s = type { %struct.mi_memid_s, i8, i8, i64, ptr, ptr, ptr, i8, i8, i64, i64, i64, i64, i64, i64, ptr, ptr, i64, i64, i32, [1 x %struct.mi_page_s] }
%struct.mi_memid_s = type { %union.anon, i8, i8, i8, i32 }
%union.anon = type { %struct.mi_memid_os_info }
%struct.mi_memid_os_info = type { ptr, i64 }
%struct.mi_page_s = type { i8, i8, i16, i16, %union.mi_page_flags_s, i8, ptr, ptr, i16, i8, i8, i64, ptr, i64, i64, ptr, ptr }
%union.mi_page_flags_s = type { i8 }
%struct.mi_segmap_part_s = type { %struct.mi_memid_s, [1008 x i64] }

@mi_segment_map = internal global [196 x ptr] zeroinitializer, align 16
@_mi_heap_main = external hidden global %struct.mi_heap_s, align 8

; Function Attrs: inlinehint nounwind uwtable
define internal i64 @_mi_ptr_cookie(ptr noundef %0) #4 {
  %2 = alloca ptr, align 8
  store ptr %0, ptr %2, align 8, !tbaa !29
  %3 = load ptr, ptr %2, align 8, !tbaa !29
  %4 = ptrtoint ptr %3 to i64
  %5 = load i64, ptr getelementptr inbounds nuw (%struct.mi_heap_s, ptr @_mi_heap_main, i32 0, i32 4), align 8, !tbaa !32
  %6 = xor i64 %4, %5
  ret i64 %6
}

; Function Attrs: nounwind uwtable
define internal ptr @mi_segment_map_index_of(ptr noundef %0, i1 noundef zeroext %1, ptr noundef %2, ptr noundef %3) #0 {
  %5 = alloca ptr, align 8
  %6 = alloca ptr, align 8
  %7 = alloca i8, align 1
  %8 = alloca ptr, align 8
  %9 = alloca ptr, align 8
  %10 = alloca i64, align 8
  %11 = alloca i32, align 4
  %12 = alloca ptr, align 8
  %13 = alloca ptr, align 8
  %14 = alloca %struct.mi_memid_s, align 8
  %15 = alloca ptr, align 8
  %16 = alloca ptr, align 8
  %17 = alloca i8, align 1
  %18 = alloca i64, align 8
  %19 = alloca i64, align 8
  store ptr %0, ptr %6, align 8, !tbaa !3
  %20 = zext i1 %1 to i8
  store i8 %20, ptr %7, align 1, !tbaa !18
  store ptr %2, ptr %8, align 8, !tbaa !23
  store ptr %3, ptr %9, align 8, !tbaa !23
  %21 = load ptr, ptr %8, align 8, !tbaa !23
  store i64 0, ptr %21, align 8, !tbaa !17
  %22 = load ptr, ptr %9, align 8, !tbaa !23
  store i64 0, ptr %22, align 8, !tbaa !17
  %23 = load ptr, ptr %6, align 8, !tbaa !3
  %24 = ptrtoint ptr %23 to i64
  %25 = icmp uge i64 %24, 52776558133248
  br i1 %25, label %26, label %27

26:                                               ; preds = %4
  store ptr null, ptr %5, align 8
  br label %93

27:                                               ; preds = %4
  call void @llvm.lifetime.start.p0(i64 8, ptr %10) #6
  %28 = load ptr, ptr %6, align 8, !tbaa !3
  %29 = ptrtoint ptr %28 to i64
  %30 = udiv i64 %29, 270582939648
  store i64 %30, ptr %10, align 8, !tbaa !17
  %31 = load i64, ptr %10, align 8, !tbaa !17
  %32 = icmp uge i64 %31, 196
  br i1 %32, label %33, label %34

33:                                               ; preds = %27
  store ptr null, ptr %5, align 8
  store i32 1, ptr %11, align 4
  br label %92

34:                                               ; preds = %27
  call void @llvm.lifetime.start.p0(i64 8, ptr %12) #6
  %35 = load i64, ptr %10, align 8, !tbaa !17
  %36 = getelementptr inbounds nuw [196 x ptr], ptr @mi_segment_map, i64 0, i64 %35
  %37 = load atomic i64, ptr %36 monotonic, align 8
  store i64 %37, ptr %13, align 8
  %38 = load ptr, ptr %13, align 8, !tbaa !15
  store ptr %38, ptr %12, align 8, !tbaa !15
  %39 = load ptr, ptr %12, align 8, !tbaa !15
  %40 = icmp eq ptr %39, null
  br i1 %40, label %41, label %78

41:                                               ; preds = %34
  %42 = load i8, ptr %7, align 1, !tbaa !18, !range !19, !noundef !20
  %43 = trunc i8 %42 to i1
  br i1 %43, label %45, label %44

44:                                               ; preds = %41
  store ptr null, ptr %5, align 8
  store i32 1, ptr %11, align 4
  br label %91

45:                                               ; preds = %41
  call void @llvm.lifetime.start.p0(i64 24, ptr %14) #6
  %46 = call ptr @_mi_os_alloc(i64 noundef 8088, ptr noundef %14) #7
  store ptr %46, ptr %12, align 8, !tbaa !15
  %47 = load ptr, ptr %12, align 8, !tbaa !15
  %48 = icmp eq ptr %47, null
  br i1 %48, label %49, label %50

49:                                               ; preds = %45
  store ptr null, ptr %5, align 8
  store i32 1, ptr %11, align 4
  br label %75

50:                                               ; preds = %45
  %51 = load ptr, ptr %12, align 8, !tbaa !15
  %52 = getelementptr inbounds nuw %struct.mi_segmap_part_s, ptr %51, i32 0, i32 0
  call void @llvm.memcpy.p0.p0.i64(ptr align 8 %52, ptr align 8 %14, i64 24, i1 false), !tbaa.struct !25
  call void @llvm.lifetime.start.p0(i64 8, ptr %15) #6
  store ptr null, ptr %15, align 8, !tbaa !15
  %53 = load i64, ptr %10, align 8, !tbaa !17
  %54 = getelementptr inbounds nuw [196 x ptr], ptr @mi_segment_map, i64 0, i64 %53
  %55 = load ptr, ptr %12, align 8, !tbaa !15
  store ptr %55, ptr %16, align 8, !tbaa !15
  %56 = load i64, ptr %15, align 8
  %57 = load i64, ptr %16, align 8
  %58 = cmpxchg ptr %54, i64 %56, i64 %57 release monotonic, align 8
  %59 = extractvalue { i64, i1 } %58, 0
  %60 = extractvalue { i64, i1 } %58, 1
  br i1 %60, label %62, label %61

61:                                               ; preds = %50
  store i64 %59, ptr %15, align 8
  br label %62

62:                                               ; preds = %61, %50
  %63 = zext i1 %60 to i8
  store i8 %63, ptr %17, align 1, !tbaa !18
  %64 = load i8, ptr %17, align 1, !tbaa !18, !range !19, !noundef !20
  %65 = trunc i8 %64 to i1
  br i1 %65, label %73, label %66

66:                                               ; preds = %62
  %67 = load ptr, ptr %12, align 8, !tbaa !15
  call void @_mi_os_free(ptr noundef %67, i64 noundef 8088, ptr noundef byval(%struct.mi_memid_s) align 8 %14) #7
  %68 = load ptr, ptr %15, align 8, !tbaa !15
  store ptr %68, ptr %12, align 8, !tbaa !15
  %69 = load ptr, ptr %12, align 8, !tbaa !15
  %70 = icmp eq ptr %69, null
  br i1 %70, label %71, label %72

71:                                               ; preds = %66
  store ptr null, ptr %5, align 8
  store i32 1, ptr %11, align 4
  br label %74

72:                                               ; preds = %66
  br label %73

73:                                               ; preds = %72, %62
  store i32 0, ptr %11, align 4
  br label %74

74:                                               ; preds = %73, %71
  call void @llvm.lifetime.end.p0(i64 8, ptr %15) #6
  br label %75

75:                                               ; preds = %74, %49
  call void @llvm.lifetime.end.p0(i64 24, ptr %14) #6
  %76 = load i32, ptr %11, align 4
  switch i32 %76, label %91 [
    i32 0, label %77
  ]

77:                                               ; preds = %75
  br label %78

78:                                               ; preds = %77, %34
  call void @llvm.lifetime.start.p0(i64 8, ptr %18) #6
  %79 = load ptr, ptr %6, align 8, !tbaa !3
  %80 = ptrtoint ptr %79 to i64
  %81 = urem i64 %80, 270582939648
  store i64 %81, ptr %18, align 8, !tbaa !17
  call void @llvm.lifetime.start.p0(i64 8, ptr %19) #6
  %82 = load i64, ptr %18, align 8, !tbaa !17
  %83 = udiv i64 %82, 4194304
  store i64 %83, ptr %19, align 8, !tbaa !17
  %84 = load i64, ptr %19, align 8, !tbaa !17
  %85 = udiv i64 %84, 64
  %86 = load ptr, ptr %8, align 8, !tbaa !23
  store i64 %85, ptr %86, align 8, !tbaa !17
  %87 = load i64, ptr %19, align 8, !tbaa !17
  %88 = urem i64 %87, 64
  %89 = load ptr, ptr %9, align 8, !tbaa !23
  store i64 %88, ptr %89, align 8, !tbaa !17
  %90 = load ptr, ptr %12, align 8, !tbaa !15
  store ptr %90, ptr %5, align 8
  store i32 1, ptr %11, align 4
  call void @llvm.lifetime.end.p0(i64 8, ptr %19) #6
  call void @llvm.lifetime.end.p0(i64 8, ptr %18) #6
  br label %91

91:                                               ; preds = %78, %75, %44
  call void @llvm.lifetime.end.p0(i64 8, ptr %12) #6
  br label %92

92:                                               ; preds = %91, %33
  call void @llvm.lifetime.end.p0(i64 8, ptr %10) #6
  br label %93

93:                                               ; preds = %92, %26
  %94 = load ptr, ptr %5, align 8
  ret ptr %94
}

; Function Attrs: inlinehint nounwind uwtable
define internal ptr @_mi_ptr_segment(ptr noundef %0) #4 {
  %2 = alloca ptr, align 8
  %3 = alloca ptr, align 8
  store ptr %0, ptr %2, align 8, !tbaa !29
  call void @llvm.lifetime.start.p0(i64 8, ptr %3) #6
  %4 = load ptr, ptr %2, align 8, !tbaa !29
  %5 = ptrtoint ptr %4 to i64
  %6 = sub i64 %5, 1
  %7 = and i64 %6, -4194304
  %8 = inttoptr i64 %7 to ptr
  store ptr %8, ptr %3, align 8, !tbaa !3
  %9 = load ptr, ptr %3, align 8, !tbaa !3
  %10 = ptrtoint ptr %9 to i64
  %11 = icmp sle i64 %10, 0
  br i1 %11, label %12, label %13

12:                                               ; preds = %1
  br label %15

13:                                               ; preds = %1
  %14 = load ptr, ptr %3, align 8, !tbaa !3
  br label %15

15:                                               ; preds = %13, %12
  %16 = phi ptr [ null, %12 ], [ %14, %13 ]
  call void @llvm.lifetime.end.p0(i64 8, ptr %3) #6
  ret ptr %16
}

; Function Attrs: nounwind uwtable
define internal ptr @_mi_segment_of(ptr noundef %0) #0 {
  %2 = alloca ptr, align 8
  %3 = alloca ptr, align 8
  %4 = alloca ptr, align 8
  %5 = alloca i64, align 8
  %6 = alloca i64, align 8
  %7 = alloca ptr, align 8
  %8 = alloca i32, align 4
  %9 = alloca i64, align 8
  %10 = alloca i64, align 8
  %11 = alloca i8, align 1
  store ptr %0, ptr %3, align 8, !tbaa !29
  %12 = load ptr, ptr %3, align 8, !tbaa !29
  %13 = icmp eq ptr %12, null
  br i1 %13, label %14, label %15

14:                                               ; preds = %1
  store ptr null, ptr %2, align 8
  br label %53

15:                                               ; preds = %1
  call void @llvm.lifetime.start.p0(i64 8, ptr %4) #6
  %16 = load ptr, ptr %3, align 8, !tbaa !29
  %17 = call ptr @_mi_ptr_segment(ptr noundef %16) #7
  store ptr %17, ptr %4, align 8, !tbaa !3
  call void @llvm.lifetime.start.p0(i64 8, ptr %5) #6
  call void @llvm.lifetime.start.p0(i64 8, ptr %6) #6
  call void @llvm.lifetime.start.p0(i64 8, ptr %7) #6
  %18 = load ptr, ptr %4, align 8, !tbaa !3
  %19 = call ptr @mi_segment_map_index_of(ptr noundef %18, i1 noundef zeroext false, ptr noundef %5, ptr noundef %6) #7
  store ptr %19, ptr %7, align 8, !tbaa !15
  %20 = load ptr, ptr %7, align 8, !tbaa !15
  %21 = icmp eq ptr %20, null
  br i1 %21, label %22, label %23

22:                                               ; preds = %15
  store ptr null, ptr %2, align 8
  store i32 1, ptr %8, align 4
  br label %52

23:                                               ; preds = %15
  call void @llvm.lifetime.start.p0(i64 8, ptr %9) #6
  %24 = load ptr, ptr %7, align 8, !tbaa !15
  %25 = getelementptr inbounds nuw %struct.mi_segmap_part_s, ptr %24, i32 0, i32 1
  %26 = load i64, ptr %5, align 8, !tbaa !17
  %27 = getelementptr inbounds nuw [1008 x i64], ptr %25, i64 0, i64 %26
  %28 = load atomic i64, ptr %27 monotonic, align 8
  store i64 %28, ptr %10, align 8
  %29 = load i64, ptr %10, align 8, !tbaa !17
  store i64 %29, ptr %9, align 8, !tbaa !17
  %30 = load i64, ptr %9, align 8, !tbaa !17
  %31 = load i64, ptr %6, align 8, !tbaa !17
  %32 = shl i64 1, %31
  %33 = and i64 %30, %32
  %34 = icmp ne i64 %33, 0
  %35 = xor i1 %34, true
  %36 = xor i1 %35, true
  %37 = zext i1 %36 to i32
  %38 = sext i32 %37 to i64
  %39 = call i64 @llvm.expect.i64(i64 %38, i64 1)
  %40 = icmp ne i64 %39, 0
  br i1 %40, label %41, label %50

41:                                               ; preds = %23
  call void @llvm.lifetime.start.p0(i64 1, ptr %11) #6
  %42 = load ptr, ptr %4, align 8, !tbaa !3
  %43 = call i64 @_mi_ptr_cookie(ptr noundef %42) #7
  %44 = load ptr, ptr %4, align 8, !tbaa !3
  %45 = getelementptr inbounds nuw %struct.mi_segment_s, ptr %44, i32 0, i32 14
  %46 = load i64, ptr %45, align 8, !tbaa !31
  %47 = icmp eq i64 %43, %46
  %48 = zext i1 %47 to i8
  store i8 %48, ptr %11, align 1, !tbaa !18
  %49 = load ptr, ptr %4, align 8, !tbaa !3
  store ptr %49, ptr %2, align 8
  store i32 1, ptr %8, align 4
  call void @llvm.lifetime.end.p0(i64 1, ptr %11) #6
  br label %51

50:                                               ; preds = %23
  store ptr null, ptr %2, align 8
  store i32 1, ptr %8, align 4
  br label %51

51:                                               ; preds = %50, %41
  call void @llvm.lifetime.end.p0(i64 8, ptr %9) #6
  br label %52

52:                                               ; preds = %51, %22
  call void @llvm.lifetime.end.p0(i64 8, ptr %7) #6
  call void @llvm.lifetime.end.p0(i64 8, ptr %6) #6
  call void @llvm.lifetime.end.p0(i64 8, ptr %5) #6
  call void @llvm.lifetime.end.p0(i64 8, ptr %4) #6
  br label %53

53:                                               ; preds = %52, %14
  %54 = load ptr, ptr %2, align 8
  ret ptr %54
}

; Function Attrs: nounwind uwtable
define internal zeroext i1 @mi_is_valid_pointer(ptr noundef %0) #0 {
  %2 = alloca ptr, align 8
  store ptr %0, ptr %2, align 8, !tbaa !29
  %3 = load ptr, ptr %2, align 8, !tbaa !29
  %4 = call zeroext i1 @_mi_arena_contains(ptr noundef %3) #7
  br i1 %4, label %9, label %5

5:                                                ; preds = %1
  %6 = load ptr, ptr %2, align 8, !tbaa !29
  %7 = call ptr @_mi_segment_of(ptr noundef %6) #7
  %8 = icmp ne ptr %7, null
  br label %9

9:                                                ; preds = %5, %1
  %10 = phi i1 [ true, %1 ], [ %8, %5 ]
  ret i1 %10
}

; Function Attrs: nounwind uwtable
define hidden zeroext i1 @mi_is_in_heap_region(ptr noundef %0) #0 {
  %2 = alloca ptr, align 8
  store ptr %0, ptr %2, align 8, !tbaa !29
  %3 = load ptr, ptr %2, align 8, !tbaa !29
  %4 = call zeroext i1 @mi_is_valid_pointer(ptr noundef %3) #7
  ret i1 %4
}