; Function Attrs: nounwind uwtable
define hidden zeroext i1 @mi_is_in_heap_region(ptr noundef %0) local_unnamed_addr #0 {
  %2 = tail call zeroext i1 @_mi_arena_contains(ptr noundef %0) #6
  br i1 %2, label %mi_is_valid_pointer.exit, label %3

3:                                                ; preds = %1
  %4 = icmp eq ptr %0, null
  br i1 %4, label %mi_is_valid_pointer.exit, label %5

5:                                                ; preds = %3
  %6 = ptrtoint ptr %0 to i64
  %7 = add i64 %6, -1
  %8 = and i64 %7, -4194304
  %9 = inttoptr i64 %8 to ptr
  %10 = icmp slt i64 %7, 4194304
  %11 = select i1 %10, ptr null, ptr %9
  %12 = ptrtoint ptr %11 to i64
  %13 = icmp ugt ptr %11, inttoptr (i64 52776558133247 to ptr)
  br i1 %13, label %mi_is_valid_pointer.exit, label %14

14:                                               ; preds = %5
  %15 = udiv i64 %12, 270582939648
  %16 = urem i64 %12, 270582939648
  %17 = getelementptr inbounds nuw [196 x ptr], ptr @mi_segment_map, i64 0, i64 %15
  %18 = load atomic i64, ptr %17 monotonic, align 8
  %19 = icmp eq i64 %18, 0
  br i1 %19, label %mi_is_valid_pointer.exit, label %mi_segment_map_index_of.exit.i.i

mi_segment_map_index_of.exit.i.i:                 ; preds = %14
  %20 = inttoptr i64 %18 to ptr
  %21 = lshr exact i64 %16, 22
  %22 = and i64 %21, 63
  %23 = lshr i64 %16, 28
  %24 = getelementptr inbounds nuw i8, ptr %20, i64 24
  %25 = getelementptr inbounds nuw [1008 x i64], ptr %24, i64 0, i64 %23
  %26 = load atomic i64, ptr %25 monotonic, align 8
  %27 = shl nuw i64 1, %22
  %28 = and i64 %26, %27
  %.not.i.i = icmp ne i64 %28, 0
  %29 = icmp ne ptr %11, null
  %30 = and i1 %29, %.not.i.i
  br label %mi_is_valid_pointer.exit

mi_is_valid_pointer.exit:                         ; preds = %1, %3, %5, %14, %mi_segment_map_index_of.exit.i.i
  %31 = phi i1 [ true, %1 ], [ false, %3 ], [ false, %5 ], [ false, %14 ], [ %30, %mi_segment_map_index_of.exit.i.i ]
  ret i1 %31
}